target datalayout = "e-m:e-p270:32:32-p271:32:32-p272:64:64-i64:64-i128:128-f80:128-n8:16:32:64-S128"
target triple = "x86_64-pc-linux-gnu"

%struct.QVirtioPCIDevice = type { %struct.QOSGraphObject, %struct.QVirtioDevice, ptr, %struct.QPCIBar, ptr, i16, i64, i32, i32, i32, i32, i32, i32, i32 }
%struct.QOSGraphObject = type { ptr, ptr, ptr, ptr, ptr }
%struct.QVirtioDevice = type { ptr, i16, i64, i8, i8 }
%struct.QPCIBar = type { i64, i8 }

; Function Attrs: nounwind sspstrong uwtable
define internal zeroext i8 @get_status(ptr noundef %0) #0 {
  %2 = alloca ptr, align 8
  %3 = alloca ptr, align 8
  %4 = alloca ptr, align 8
  %5 = alloca ptr, align 8
  store ptr %0, ptr %2, align 8
  call void @llvm.lifetime.start.p0(i64 8, ptr %3) #5
  call void @llvm.lifetime.start.p0(i64 8, ptr %4) #5
  %6 = load ptr, ptr %2, align 8
  store ptr %6, ptr %4, align 8
  %7 = load ptr, ptr %4, align 8
  %8 = getelementptr inbounds i8, ptr %7, i64 -40
  store ptr %8, ptr %5, align 8
  call void @llvm.lifetime.end.p0(i64 8, ptr %4) #5
  %9 = load ptr, ptr %5, align 8
  store ptr %9, ptr %3, align 8
  %10 = load ptr, ptr %3, align 8
  %11 = getelementptr inbounds nuw %struct.QVirtioPCIDevice, ptr %10, i32 0, i32 2
  %12 = load ptr, ptr %11, align 8
  %13 = load ptr, ptr %3, align 8
  %14 = getelementptr inbounds nuw %struct.QVirtioPCIDevice, ptr %13, i32 0, i32 3
  %15 = load ptr, ptr %3, align 8
  %16 = getelementptr inbounds nuw %struct.QVirtioPCIDevice, ptr %15, i32 0, i32 9
  %17 = load i32, ptr %16, align 8
  %18 = zext i32 %17 to i64
  %19 = add i64 %18, 20
  %20 = getelementptr inbounds nuw { i64, i8 }, ptr %14, i32 0, i32 0
  %21 = load i64, ptr %20, align 8
  %22 = getelementptr inbounds nuw { i64, i8 }, ptr %14, i32 0, i32 1
  %23 = load i8, ptr %22, align 8
  %24 = call zeroext i8 @qpci_io_readb(ptr noundef %12, i64 %21, i8 %23, i64 noundef %19)
  call void @llvm.lifetime.end.p0(i64 8, ptr %3) #5
  ret i8 %24
}