; Function Attrs: nounwind sspstrong uwtable
define internal zeroext i8 @get_status(ptr noundef readonly captures(none) %0) #0 {
  %2 = getelementptr inbounds nuw i8, ptr %0, i64 32
  %3 = load ptr, ptr %2, align 8
  %4 = getelementptr inbounds nuw i8, ptr %0, i64 40
  %5 = getelementptr inbounds nuw i8, ptr %0, i64 88
  %6 = load i32, ptr %5, align 8
  %7 = zext i32 %6 to i64
  %8 = add nuw nsw i64 %7, 20
  %9 = load i64, ptr %4, align 8
  %10 = getelementptr inbounds nuw i8, ptr %0, i64 48
  %11 = load i8, ptr %10, align 8
  %12 = tail call zeroext i8 @qpci_io_readb(ptr noundef %3, i64 %9, i8 %11, i64 noundef %8) #3
  ret i8 %12
}